Certificate:
    Data:
        Version: 3 (0x2)
        Serial Number: 4096 (0x1000)
        Signature Algorithm: sha256WithRSAEncryption
        Issuer: C=BN, ST=Dhaka, L=Dhaka, O=Dhaka University, OU=CSE, CN=idp.du.com/emailAddress=mesbah.csesust@gmail.com
        Validity
            Not Before: May 20 21:29:25 2022 GMT
            Not After : May 20 21:29:25 2023 GMT
        Subject: C=BN, ST=Dhaka, O=Dhaka University, OU=CSE, CN=idp.du.com/emailAddress=mesbah.csesust@gmail.com
        Subject Public Key Info:
            Public Key Algorithm: rsaEncryption
                RSA Public-Key: (2048 bit)
                Modulus:
                    00:f4:7d:65:69:9f:03:d2:3a:d8:71:c0:5b:49:07:
                    3f:64:40:48:85:21:fa:6e:e1:fb:07:2c:91:82:ee:
                    7f:e0:63:7c:a5:b1:d5:57:96:69:66:2c:57:dc:5d:
                    b6:32:7a:4c:61:04:6a:e8:10:21:4b:09:f7:29:39:
                    63:6c:f6:ec:ed:a4:e5:73:e9:62:d2:27:28:a7:22:
                    13:d9:f4:66:e1:29:73:73:4a:85:37:0f:4f:d6:a0:
                    d0:5a:31:e9:2f:09:03:65:25:3e:e1:d2:f6:ed:81:
                    96:0f:7f:48:80:61:0d:b8:b5:dd:e8:d7:1a:0a:89:
                    00:4f:1e:5d:1d:3b:bb:aa:3b:90:82:20:9d:05:19:
                    dd:c3:79:0e:74:3a:6b:bf:9c:bd:2e:2e:5a:65:42:
                    48:ce:75:ac:60:37:96:fd:04:56:2e:61:07:d4:85:
                    18:50:be:f9:36:36:be:59:ac:2d:a5:b4:09:fe:9a:
                    f3:2c:2b:1b:6f:e4:0f:78:4f:fd:7c:08:21:ff:da:
                    4a:c8:59:83:77:f5:9d:a3:d8:12:36:4a:d5:d2:fd:
                    6f:1e:cd:e5:8b:d6:6f:88:12:e7:16:b1:7e:fc:77:
                    6c:e4:71:9a:ce:70:1c:c4:a4:c7:c4:8b:56:06:a3:
                    2a:63:e6:84:37:a4:3f:d5:02:a9:f2:a5:13:07:99:
                    2c:83
                Exponent: 65537 (0x10001)
        X509v3 extensions:
            X509v3 Basic Constraints: 
                CA:FALSE
            Netscape Comment: 
                OpenSSL Generated Certificate
            X509v3 Subject Key Identifier: 
                3B:E3:38:81:4B:05:55:97:7A:29:E7:28:6F:30:99:FC:EB:B7:13:47
            X509v3 Authority Key Identifier: 
                keyid:F3:8A:C2:7B:89:37:38:FB:67:3D:92:6C:2D:F2:4B:39:76:DB:3C:31

    Signature Algorithm: sha256WithRSAEncryption
         32:02:67:4b:76:4c:64:d7:9b:06:fc:e8:1f:04:cf:b3:b2:c3:
         51:23:96:68:40:fd:dc:ee:e8:27:36:31:cd:12:9c:04:ff:e3:
         75:70:a1:3c:0f:89:fb:0a:f2:35:51:12:18:27:a7:91:4f:ca:
         f4:d4:d6:f9:49:ca:4c:d8:89:e4:43:e3:4e:9b:68:47:48:d3:
         9d:d0:54:19:9a:bb:fa:04:88:a3:51:54:81:f1:29:73:c4:2b:
         eb:fd:17:5c:06:4c:64:62:52:f0:cf:bb:68:ce:fa:d4:17:5f:
         a1:63:7c:73:3b:7d:c9:15:03:3d:e4:f1:99:d7:56:ce:ff:07:
         7b:df:b6:88:15:01:ef:86:e4:98:50:a5:c9:dc:1e:e7:8b:bf:
         09:de:5b:b7:a3:83:93:90:16:93:c5:8e:49:0d:2e:35:fa:c5:
         8f:f6:d1:82:52:ea:fc:a2:1a:82:a6:e0:ff:76:2d:b6:7c:83:
         16:1f:5c:b6:ef:ce:2f:a6:6a:f0:e0:c8:e4:ec:6e:c7:9e:64:
         b3:ec:c4:06:fd:4e:1c:eb:3b:ba:44:94:61:19:84:97:fc:e1:
         bd:90:07:a2:a1:87:08:a9:5d:65:be:d8:da:ef:57:de:db:13:
         39:e9:39:38:72:d6:6f:ea:24:3c:dd:9c:b4:74:a5:02:b1:1c:
         ed:b4:11:45
-----BEGIN CERTIFICATE-----
MIIEETCCAvmgAwIBAgICEAAwDQYJKoZIhvcNAQELBQAwgZQxCzAJBgNVBAYTAkJO
MQ4wDAYDVQQIDAVEaGFrYTEOMAwGA1UEBwwFRGhha2ExGTAXBgNVBAoMEERoYWth
IFVuaXZlcnNpdHkxDDAKBgNVBAsMA0NTRTETMBEGA1UEAwwKaWRwLmR1LmNvbTEn
MCUGCSqGSIb3DQEJARYYbWVzYmFoLmNzZXN1c3RAZ21haWwuY29tMB4XDTIyMDUy
MDIxMjkyNVoXDTIzMDUyMDIxMjkyNVowgYQxCzAJBgNVBAYTAkJOMQ4wDAYDVQQI
DAVEaGFrYTEZMBcGA1UECgwQRGhha2EgVW5pdmVyc2l0eTEMMAoGA1UECwwDQ1NF
MRMwEQYDVQQDDAppZHAuZHUuY29tMScwJQYJKoZIhvcNAQkBFhhtZXNiYWguY3Nl
c3VzdEBnbWFpbC5jb20wggEiMA0GCSqGSIb3DQEBAQUAA4IBDwAwggEKAoIBAQD0
fWVpnwPSOthxwFtJBz9kQEiFIfpu4fsHLJGC7n/gY3ylsdVXlmlmLFfcXbYyekxh
BGroECFLCfcpOWNs9uztpOVz6WLSJyinIhPZ9GbhKXNzSoU3D0/WoNBaMekvCQNl
JT7h0vbtgZYPf0iAYQ24td3o1xoKiQBPHl0dO7uqO5CCIJ0FGd3DeQ50Omu/nL0u
LlplQkjOdaxgN5b9BFYuYQfUhRhQvvk2Nr5ZrC2ltAn+mvMsKxtv5A94T/18CCH/
2krIWYN39Z2j2BI2StXS/W8ezeWL1m+IEucWsX78d2zkcZrOcBzEpMfEi1YGoypj
5oQ3pD/VAqnypRMHmSyDAgMBAAGjezB5MAkGA1UdEwQCMAAwLAYJYIZIAYb4QgEN
BB8WHU9wZW5TU0wgR2VuZXJhdGVkIENlcnRpZmljYXRlMB0GA1UdDgQWBBQ74ziB
SwVVl3op5yhvMJn867cTRzAfBgNVHSMEGDAWgBTzisJ7iTc4+2c9kmwt8ks5dts8
MTANBgkqhkiG9w0BAQsFAAOCAQEAMgJnS3ZMZNebBvzoHwTPs7LDUSOWaED93O7o
JzYxzRKcBP/jdXChPA+J+wryNVESGCenkU/K9NTW+UnKTNiJ5EPjTptoR0jTndBU
GZq7+gSIo1FUgfEpc8Qr6/0XXAZMZGJS8M+7aM761BdfoWN8czt9yRUDPeTxmddW
zv8He9+2iBUB74bkmFClydwe54u/Cd5bt6ODk5AWk8WOSQ0uNfrFj/bRglLq/KIa
gqbg/3YttnyDFh9ctu/OL6Zq8ODI5Oxux55ks+zEBv1OHOs7ukSUYRmEl/zhvZAH
oqGHCKldZb7Y2u9X3tsTOek5OHLWb+okPN2ctHSlArEc7bQRRQ==
-----END CERTIFICATE-----
