Certificate:
    Data:
        Version: 3 (0x2)
        Serial Number: 4096 (0x1000)
        Signature Algorithm: sha256WithRSAEncryption
        Issuer: C=BN, ST=Dhaka, L=Dhaka, O=Dhaka University, OU=CSE, CN=sp2.du.com/emailAddress=mesbah.csesust@gmail.com
        Validity
            Not Before: May 19 19:36:26 2022 GMT
            Not After : May 19 19:36:26 2023 GMT
        Subject: C=BN, ST=Dhaka, O=Dhaka University, OU=CSE, CN=sp2.du.com/emailAddress=mesbah.csesust@gmail.com
        Subject Public Key Info:
            Public Key Algorithm: rsaEncryption
                RSA Public-Key: (2048 bit)
                Modulus:
                    00:b4:ca:65:ab:76:18:6d:71:46:06:08:af:19:84:
                    d0:c4:8e:4f:ae:61:a9:18:d0:f4:03:aa:d8:c3:f6:
                    cc:27:c2:07:b9:84:b3:21:8c:90:4d:68:fe:cd:8b:
                    6a:e1:16:04:14:ca:e7:22:56:f9:19:f6:49:7f:59:
                    e7:70:d1:f9:f8:d3:2d:b7:f7:fa:4f:ec:d4:75:06:
                    ad:cf:ef:88:7d:72:8e:e3:a2:20:00:f7:dd:84:50:
                    97:b4:e5:cd:1a:39:06:ac:94:f7:03:af:d3:16:b1:
                    cd:95:95:37:9c:9c:c3:9c:d3:f1:51:63:00:06:3f:
                    78:c9:ed:47:de:3e:63:65:00:2b:ed:82:8a:6d:a5:
                    28:1c:a1:d0:46:be:10:14:d4:6d:0e:0a:c8:4d:34:
                    ae:31:25:c6:83:a9:4d:10:36:1f:99:42:c2:c7:25:
                    02:80:1d:80:5c:1a:09:02:83:56:7c:53:0a:91:32:
                    b6:f5:ff:a2:5b:92:90:f4:ff:7f:1f:01:12:a4:f1:
                    7f:1d:14:c0:4a:bf:50:63:2f:ae:08:f2:3b:c4:33:
                    5e:33:ac:33:2e:32:64:01:c5:e3:d7:ce:d6:e4:b7:
                    44:dd:3e:c4:43:74:0b:db:18:03:d7:58:ef:f8:cf:
                    64:35:63:b6:9c:95:1d:93:57:be:80:21:b6:47:a3:
                    0e:f7
                Exponent: 65537 (0x10001)
        X509v3 extensions:
            X509v3 Basic Constraints: 
                CA:FALSE
            Netscape Comment: 
                OpenSSL Generated Certificate
            X509v3 Subject Key Identifier: 
                5D:FE:FC:77:59:82:71:00:93:9A:A3:2C:28:A6:02:3C:65:92:23:E2
            X509v3 Authority Key Identifier: 
                keyid:2E:DD:09:49:3A:94:04:CF:5A:D8:FA:91:86:9F:12:9D:3C:46:EE:63

    Signature Algorithm: sha256WithRSAEncryption
         18:aa:b1:89:70:dc:71:b3:99:17:74:e1:04:00:2a:14:68:09:
         fc:ac:e6:9c:7c:ad:67:5d:57:18:77:df:2f:99:68:9c:96:3d:
         71:f1:c7:af:cf:9c:52:3e:51:60:80:c6:04:6e:6a:86:58:48:
         d7:c2:1e:ce:78:db:b7:25:e0:5d:c3:87:0a:38:01:7d:40:c4:
         01:7f:ab:d3:85:81:43:04:b0:ed:a4:b4:84:14:3e:c1:fc:5d:
         90:fc:13:30:b0:7c:10:fe:11:7c:4e:41:c7:c9:49:5a:64:3f:
         01:16:2a:aa:b8:b1:f1:21:93:1f:06:d3:36:68:90:50:d6:82:
         0a:3e:58:a0:ed:2c:68:bc:9d:13:43:6e:fb:6c:63:c2:6d:b8:
         d7:d9:0c:56:fe:e1:e7:e0:d7:e8:3b:ab:cd:dd:19:0a:b8:dd:
         8d:ae:09:fe:7c:93:87:97:0c:08:ed:86:d8:0c:ca:cd:b6:9f:
         e3:3e:82:16:34:aa:91:a5:c0:38:03:9a:10:29:f9:20:8f:74:
         3e:7c:80:71:99:6f:4c:fb:11:e5:3f:82:bb:ad:5d:61:77:2f:
         8f:b4:bd:c9:58:c2:57:d9:0b:cf:bc:77:89:4c:47:a2:4e:e1:
         56:a3:2b:81:ce:f9:10:2b:ad:14:c0:eb:52:4c:1a:98:6b:2e:
         ad:28:35:5e
-----BEGIN CERTIFICATE-----
MIIEETCCAvmgAwIBAgICEAAwDQYJKoZIhvcNAQELBQAwgZQxCzAJBgNVBAYTAkJO
MQ4wDAYDVQQIDAVEaGFrYTEOMAwGA1UEBwwFRGhha2ExGTAXBgNVBAoMEERoYWth
IFVuaXZlcnNpdHkxDDAKBgNVBAsMA0NTRTETMBEGA1UEAwwKc3AyLmR1LmNvbTEn
MCUGCSqGSIb3DQEJARYYbWVzYmFoLmNzZXN1c3RAZ21haWwuY29tMB4XDTIyMDUx
OTE5MzYyNloXDTIzMDUxOTE5MzYyNlowgYQxCzAJBgNVBAYTAkJOMQ4wDAYDVQQI
DAVEaGFrYTEZMBcGA1UECgwQRGhha2EgVW5pdmVyc2l0eTEMMAoGA1UECwwDQ1NF
MRMwEQYDVQQDDApzcDIuZHUuY29tMScwJQYJKoZIhvcNAQkBFhhtZXNiYWguY3Nl
c3VzdEBnbWFpbC5jb20wggEiMA0GCSqGSIb3DQEBAQUAA4IBDwAwggEKAoIBAQC0
ymWrdhhtcUYGCK8ZhNDEjk+uYakY0PQDqtjD9swnwge5hLMhjJBNaP7Ni2rhFgQU
yuciVvkZ9kl/Wedw0fn40y239/pP7NR1Bq3P74h9co7joiAA992EUJe05c0aOQas
lPcDr9MWsc2VlTecnMOc0/FRYwAGP3jJ7UfePmNlACvtgoptpSgcodBGvhAU1G0O
CshNNK4xJcaDqU0QNh+ZQsLHJQKAHYBcGgkCg1Z8UwqRMrb1/6JbkpD0/38fARKk
8X8dFMBKv1BjL64I8jvEM14zrDMuMmQBxePXztbkt0TdPsRDdAvbGAPXWO/4z2Q1
Y7aclR2TV76AIbZHow73AgMBAAGjezB5MAkGA1UdEwQCMAAwLAYJYIZIAYb4QgEN
BB8WHU9wZW5TU0wgR2VuZXJhdGVkIENlcnRpZmljYXRlMB0GA1UdDgQWBBRd/vx3
WYJxAJOaoywopgI8ZZIj4jAfBgNVHSMEGDAWgBQu3QlJOpQEz1rY+pGGnxKdPEbu
YzANBgkqhkiG9w0BAQsFAAOCAQEAGKqxiXDccbOZF3ThBAAqFGgJ/KzmnHytZ11X
GHffL5lonJY9cfHHr8+cUj5RYIDGBG5qhlhI18IeznjbtyXgXcOHCjgBfUDEAX+r
04WBQwSw7aS0hBQ+wfxdkPwTMLB8EP4RfE5Bx8lJWmQ/ARYqqrix8SGTHwbTNmiQ
UNaCCj5YoO0saLydE0Nu+2xjwm2419kMVv7h5+DX6Durzd0ZCrjdja4J/nyTh5cM
CO2G2AzKzbaf4z6CFjSqkaXAOAOaECn5II90PnyAcZlvTPsR5T+Cu61dYXcvj7S9
yVjCV9kLz7x3iUxHok7hVqMrgc75ECutFMDrUkwamGsurSg1Xg==
-----END CERTIFICATE-----
